; ModuleID = '13/224.c'
source_filename = "13/224.c"
target datalayout = "e-m:e-p270:32:32-p271:32:32-p272:64:64-i64:64-f80:128-n8:16:32:64-S128"
target triple = "x86_64-pc-linux-gnu"

@.str = private unnamed_addr constant [4 x i8] c"%d\0A\00", align 1
@.str.1 = private unnamed_addr constant [3 x i8] c"%d\00", align 1
@.str.2 = private unnamed_addr constant [4 x i8] c"%d \00", align 1

; Function Attrs: noinline nounwind uwtable
define dso_local void @main() #0 {
  %1 = alloca i32, align 4
  %2 = alloca i32, align 4
  %3 = alloca i32, align 4
  %4 = alloca i32, align 4
  %5 = alloca i32, align 4
  %6 = alloca [20001 x i32], align 16
  store i32 0, i32* %4, align 4
  %7 = call i32 (i8*, ...) @__isoc99_scanf(i8* getelementptr inbounds ([4 x i8], [4 x i8]* @.str, i64 0, i64 0), i32* %1)
  store i32 0, i32* %2, align 4
  br label %8

8:                                                ; preds = %17, %0
  %9 = load i32, i32* %2, align 4
  %10 = load i32, i32* %1, align 4
  %11 = icmp slt i32 %9, %10
  br i1 %11, label %12, label %20

12:                                               ; preds = %8
  %13 = load i32, i32* %2, align 4
  %14 = sext i32 %13 to i64
  %15 = getelementptr inbounds [20001 x i32], [20001 x i32]* %6, i64 0, i64 %14
  %16 = call i32 (i8*, ...) @__isoc99_scanf(i8* getelementptr inbounds ([3 x i8], [3 x i8]* @.str.1, i64 0, i64 0), i32* %15)
  br label %17

17:                                               ; preds = %12
  %18 = load i32, i32* %2, align 4
  %19 = add nsw i32 %18, 1
  store i32 %19, i32* %2, align 4
  br label %8

20:                                               ; preds = %8
  store i32 1, i32* %2, align 4
  br label %21

21:                                               ; preds = %75, %20
  %22 = load i32, i32* %2, align 4
  %23 = load i32, i32* %1, align 4
  %24 = load i32, i32* %4, align 4
  %25 = sub nsw i32 %23, %24
  %26 = icmp slt i32 %22, %25
  br i1 %26, label %27, label %78

27:                                               ; preds = %21
  store i32 1, i32* %3, align 4
  br label %28

28:                                               ; preds = %71, %27
  %29 = load i32, i32* %3, align 4
  %30 = load i32, i32* %2, align 4
  %31 = icmp sle i32 %29, %30
  br i1 %31, label %32, label %74

32:                                               ; preds = %28
  %33 = load i32, i32* %2, align 4
  %34 = sext i32 %33 to i64
  %35 = getelementptr inbounds [20001 x i32], [20001 x i32]* %6, i64 0, i64 %34
  %36 = load i32, i32* %35, align 4
  %37 = load i32, i32* %2, align 4
  %38 = load i32, i32* %3, align 4
  %39 = sub nsw i32 %37, %38
  %40 = sext i32 %39 to i64
  %41 = getelementptr inbounds [20001 x i32], [20001 x i32]* %6, i64 0, i64 %40
  %42 = load i32, i32* %41, align 4
  %43 = icmp eq i32 %36, %42
  br i1 %43, label %44, label %70

44:                                               ; preds = %32
  %45 = load i32, i32* %2, align 4
  store i32 %45, i32* %5, align 4
  %46 = load i32, i32* %5, align 4
  store i32 %46, i32* %2, align 4
  br label %47

47:                                               ; preds = %62, %44
  %48 = load i32, i32* %2, align 4
  %49 = load i32, i32* %1, align 4
  %50 = load i32, i32* %4, align 4
  %51 = sub nsw i32 %49, %50
  %52 = icmp slt i32 %48, %51
  br i1 %52, label %53, label %65

53:                                               ; preds = %47
  %54 = load i32, i32* %2, align 4
  %55 = add nsw i32 %54, 1
  %56 = sext i32 %55 to i64
  %57 = getelementptr inbounds [20001 x i32], [20001 x i32]* %6, i64 0, i64 %56
  %58 = load i32, i32* %57, align 4
  %59 = load i32, i32* %2, align 4
  %60 = sext i32 %59 to i64
  %61 = getelementptr inbounds [20001 x i32], [20001 x i32]* %6, i64 0, i64 %60
  store i32 %58, i32* %61, align 4
  br label %62

62:                                               ; preds = %53
  %63 = load i32, i32* %2, align 4
  %64 = add nsw i32 %63, 1
  store i32 %64, i32* %2, align 4
  br label %47

65:                                               ; preds = %47
  %66 = load i32, i32* %5, align 4
  %67 = sub nsw i32 %66, 1
  store i32 %67, i32* %2, align 4
  %68 = load i32, i32* %4, align 4
  %69 = add nsw i32 %68, 1
  store i32 %69, i32* %4, align 4
  br label %70

70:                                               ; preds = %65, %32
  br label %71

71:                                               ; preds = %70
  %72 = load i32, i32* %3, align 4
  %73 = add nsw i32 %72, 1
  store i32 %73, i32* %3, align 4
  br label %28

74:                                               ; preds = %28
  br label %75

75:                                               ; preds = %74
  %76 = load i32, i32* %2, align 4
  %77 = add nsw i32 %76, 1
  store i32 %77, i32* %2, align 4
  br label %21

78:                                               ; preds = %21
  store i32 0, i32* %2, align 4
  br label %79

79:                                               ; preds = %92, %78
  %80 = load i32, i32* %2, align 4
  %81 = load i32, i32* %1, align 4
  %82 = load i32, i32* %4, align 4
  %83 = sub nsw i32 %81, %82
  %84 = sub nsw i32 %83, 1
  %85 = icmp slt i32 %80, %84
  br i1 %85, label %86, label %95

86:                                               ; preds = %79
  %87 = load i32, i32* %2, align 4
  %88 = sext i32 %87 to i64
  %89 = getelementptr inbounds [20001 x i32], [20001 x i32]* %6, i64 0, i64 %88
  %90 = load i32, i32* %89, align 4
  %91 = call i32 (i8*, ...) @printf(i8* getelementptr inbounds ([4 x i8], [4 x i8]* @.str.2, i64 0, i64 0), i32 %90)
  br label %92

92:                                               ; preds = %86
  %93 = load i32, i32* %2, align 4
  %94 = add nsw i32 %93, 1
  store i32 %94, i32* %2, align 4
  br label %79

95:                                               ; preds = %79
  %96 = load i32, i32* %1, align 4
  %97 = load i32, i32* %4, align 4
  %98 = sub nsw i32 %96, %97
  %99 = sub nsw i32 %98, 1
  %100 = sext i32 %99 to i64
  %101 = getelementptr inbounds [20001 x i32], [20001 x i32]* %6, i64 0, i64 %100
  %102 = load i32, i32* %101, align 4
  %103 = call i32 (i8*, ...) @printf(i8* getelementptr inbounds ([3 x i8], [3 x i8]* @.str.1, i64 0, i64 0), i32 %102)
  ret void
}

declare dso_local i32 @__isoc99_scanf(i8*, ...) #1

declare dso_local i32 @printf(i8*, ...) #1


!llvm.module.flags = !{!0}
!llvm.ident = !{!1}

!0 = !{i32 1, !"wchar_size", i32 4}
!1 = !{!"clang version 10.0.0-4ubuntu1 "}
